(dp0
S'Yahoo.com'
p1
(lp2
(S'<footer'
p3
S'</footer>'
p4
tp5
a(S'<nav'
p6
S'</nav>'
p7
tp8
a(S'<header'
p9
S'</header>'
p10
tp11
a(S'<a'
p12
S'</a>'
p13
tp14
a(S'<span'
p15
S'</span>'
p16
tp17
a(S'<li'
p18
S'</li>'
p19
tp20
a(S'<span'
p21
S'</span>'
p22
tp23
asS'BostonGlobe.com'
p24
(lp25
(S'<footer'
p26
S'</footer>'
p27
tp28
a(S'<nav'
p29
S'</nav>'
p30
tp31
a(S'<header'
p32
S'</header>'
p33
tp34
a(S'<a'
p35
S'</a>'
p36
tp37
a(S'<span'
p38
S'</span>'
p39
tp40
a(S'<li'
p41
S'</li>'
p42
tp43
a(S'<span'
p44
S'</span>'
p45
tp46
a(S'class="bg'
p47
S'</'
p48
tp49
a(S'<button'
p50
S'</button>'
p51
tp52
a(S'<div class="fineprint'
p53
S'</'
p54
tp55
a(S'="email'
p56
S'</'
p57
tp58
a(S'<div class="tease-text">'
p59
S'</div>'
p60
tp61
a(S'<div class="paywall'
p62
S'</div>'
p63
tp64
asS'NPR.org'
p65
(lp66
(S'<footer'
p67
S'</footer>'
p68
tp69
a(S'<nav'
p70
S'</nav>'
p71
tp72
a(S'<header'
p73
S'</header>'
p74
tp75
a(S'<a'
p76
S'</a>'
p77
tp78
a(S'<span'
p79
S'</span>'
p80
tp81
a(S'<div id="commentBlock">'
p82
S'</div>'
p83
tp84
a(S'<div class="adwrap">'
p85
S'</div>'
p86
tp87
asS'FoxNews.com'
p88
(lp89
(S'<footer'
p90
S'</footer>'
p91
tp92
a(S'<nav'
p93
S'</nav>'
p94
tp95
a(S'<header'
p96
S'</header>'
p97
tp98
a(S'<a'
p99
S'</a>'
p100
tp101
a(S'<span'
p102
S'</span>'
p103
tp104
a(S'<div id="user-options"'
p105
S'</span'
p106
tp107
a(S'<div id="subscribe'
p108
S'</div>'
p109
tp110
a(S'<div class="subscribe'
p111
S'</div>'
p112
tp113
a(S'<p class="advert-txt">'
p114
S'</p>'
p115
tp116
asS'CNN.com'
p117
(lp118
(S'<footer'
p119
S'</footer>'
p120
tp121
a(S'<nav'
p122
S'</nav>'
p123
tp124
a(S'<header'
p125
S'</header>'
p126
tp127
a(S'<a'
p128
S'</a>'
p129
tp130
a(S'<span'
p131
S'</span>'
p132
tp133
a(S'<div class="cd__description"'
p134
S'</div>'
p135
tp136
a(S'<div class="js-el__gallery'
p137
S'</div>'
p138
tp139
a(S'<div class="el__gallery'
p140
S'</div>'
p141
tp142
asS'BBC.com'
p143
(lp144
(S'<footer'
p145
S'</footer>'
p146
tp147
a(S'<nav'
p148
S'</nav>'
p149
tp150
a(S'<header'
p151
S'</header>'
p152
tp153
a(S'<a'
p154
S'</a>'
p155
tp156
a(S'<span'
p157
S'</span>'
p158
tp159
a(S'<meta'
p160
S'/>'
p161
tp162
a(S'<div id="most-popular"'
p163
S'</div>'
p164
tp165
a(S'<li'
p166
S'</li>'
p167
tp168
a(S'<span'
p169
S'</span>'
p170
tp171
a(S'<button'
p172
S'</button>'
p173
tp174
asS'Economist.com'
p175
(lp176
(S'<footer'
p177
S'</footer>'
p178
tp179
a(S'<nav'
p180
S'</nav>'
p181
tp182
a(S'<header'
p183
S'</header>'
p184
tp185
a(S'<a'
p186
S'</a>'
p187
tp188
a(S'<span'
p189
S'</span>'
p190
tp191
a(S'<strong'
p192
S'/strong>'
p193
tp194
a(S'<li'
p195
S'</li>'
p196
tp197
a(S'<div class="title">'
p198
S'</div>'
p199
tp200
a(S'<div class="about">'
p201
S'</div>'
p202
tp203
a(S'<div class="product'
p204
S'</div>'
p205
tp206
asS'USAToday.com'
p207
(lp208
(S'<footer'
p209
S'</footer>'
p210
tp211
a(S'<nav'
p212
S'</nav>'
p213
tp214
a(S'<header'
p215
S'</header>'
p216
tp217
a(S'<a'
p218
S'</a>'
p219
tp220
a(S'<span'
p221
S'</span>'
p222
tp223
a(S'<li'
p224
S'</li>'
p225
tp226
a(S'<span'
p227
S'</span>'
p228
tp229
a(S'class="share'
p230
S'</'
p231
tp232
a(S'class="util'
p233
S'</'
p234
tp235
as.