(dp0
S'Yahoo.com'
p1
(lp2
(S'<footer'
p3
S'</footer>'
p4
tp5
a(S'<nav'
p6
S'</nav>'
p7
tp8
a(S'<header'
p9
S'</header>'
p10
tp11
a(S'<a'
p12
S'</a>'
p13
tp14
a(S'<span'
p15
S'</span>'
p16
tp17
a(S'<li'
p18
S'</li>'
p19
tp20
a(S'<span'
p21
S'</span>'
p22
tp23
asS'BostonGlobe.com'
p24
(lp25
(S'<footer'
p26
S'</footer>'
p27
tp28
a(S'<nav'
p29
S'</nav>'
p30
tp31
a(S'<header'
p32
S'</header>'
p33
tp34
a(S'<a'
p35
S'</a>'
p36
tp37
a(S'<span'
p38
S'</span>'
p39
tp40
a(S'<li'
p41
S'</li>'
p42
tp43
a(S'<span'
p44
S'</span>'
p45
tp46
a(S'class="bg'
p47
S'</'
p48
tp49
a(S'<button'
p50
S'</button>'
p51
tp52
a(S'<div class="fineprint'
p53
S'</'
p54
tp55
a(S'="email'
p56
S'</'
p57
tp58
a(S'<div class="tease-text">'
p59
S'</div>'
p60
tp61
a(S'<div class="paywall'
p62
S'</div>'
p63
tp64
asS'NPR.org'
p65
(lp66
(S'<footer'
p67
S'</footer>'
p68
tp69
a(S'<nav'
p70
S'</nav>'
p71
tp72
a(S'<header'
p73
S'</header>'
p74
tp75
a(S'<a'
p76
S'</a>'
p77
tp78
a(S'<span'
p79
S'</span>'
p80
tp81
a(S'<div id="commentBlock">'
p82
S'</div>'
p83
tp84
a(S'<div class="adwrap">'
p85
S'</div>'
p86
tp87
asS'FoxNews.com'
p88
(lp89
(S'<footer'
p90
S'</footer>'
p91
tp92
a(S'<nav'
p93
S'</nav>'
p94
tp95
a(S'<header'
p96
S'</header>'
p97
tp98
a(S'<span'
p99
S'</span>'
p100
tp101
a(S'<div id="user-options"'
p102
S'</span'
p103
tp104
a(S'<div id="subscribe'
p105
S'</div>'
p106
tp107
a(S'<div class="subscribe'
p108
S'</div>'
p109
tp110
a(S'<p class="advert-txt">'
p111
S'</p>'
p112
tp113
asS'CNN.com'
p114
(lp115
(S'<footer'
p116
S'</footer>'
p117
tp118
a(S'<nav'
p119
S'</nav>'
p120
tp121
a(S'<header'
p122
S'</header>'
p123
tp124
a(S'<a'
p125
S'</a>'
p126
tp127
a(S'<span'
p128
S'</span>'
p129
tp130
a(S'<div class="cd__description"'
p131
S'</div>'
p132
tp133
a(S'<div class="js-el__gallery'
p134
S'</div>'
p135
tp136
a(S'<div class="el__gallery'
p137
S'</div>'
p138
tp139
asS'BBC.com'
p140
(lp141
(S'<footer'
p142
S'</footer>'
p143
tp144
a(S'<nav'
p145
S'</nav>'
p146
tp147
a(S'<header'
p148
S'</header>'
p149
tp150
a(S'<a'
p151
S'</a>'
p152
tp153
a(S'<span'
p154
S'</span>'
p155
tp156
a(S'<meta'
p157
S'/>'
p158
tp159
a(S'<div id="most-popular"'
p160
S'</div>'
p161
tp162
a(S'<li'
p163
S'</li>'
p164
tp165
a(S'<span'
p166
S'</span>'
p167
tp168
a(S'<button'
p169
S'</button>'
p170
tp171
asS'Economist.com'
p172
(lp173
(S'<footer'
p174
S'</footer>'
p175
tp176
a(S'<nav'
p177
S'</nav>'
p178
tp179
a(S'<header'
p180
S'</header>'
p181
tp182
a(S'<a'
p183
S'</a>'
p184
tp185
a(S'<span'
p186
S'</span>'
p187
tp188
a(S'<strong'
p189
S'/strong>'
p190
tp191
a(S'<li'
p192
S'</li>'
p193
tp194
a(S'<div class="title">'
p195
S'</div>'
p196
tp197
a(S'<div class="about">'
p198
S'</div>'
p199
tp200
a(S'<div class="product'
p201
S'</div>'
p202
tp203
asS'USAToday.com'
p204
(lp205
(S'<footer'
p206
S'</footer>'
p207
tp208
a(S'<nav'
p209
S'</nav>'
p210
tp211
a(S'<header'
p212
S'</header>'
p213
tp214
a(S'<a'
p215
S'</a>'
p216
tp217
a(S'<span'
p218
S'</span>'
p219
tp220
a(S'<li'
p221
S'</li>'
p222
tp223
a(S'<span'
p224
S'</span>'
p225
tp226
a(S'class="share'
p227
S'</'
p228
tp229
a(S'class="util'
p230
S'</'
p231
tp232
as.