(lp0
ccopy_reg
_reconstructor
p1
(carticle
Article
p2
c__builtin__
object
p3
Ntp4
Rp5
(dp6
S'url'
p7
Vhttp://news.yahoo.com/york-gears-historic-climate-march-155128809.html
p8
sS'tags'
p9
(lp10
(S'<footer'
p11
S'</footer>'
p12
tp13
a(S'<nav'
p14
S'</nav>'
p15
tp16
a(S'<header'
p17
S'</header>'
p18
tp19
a(S'<a'
p20
S'</a>'
p21
tp22
a(S'<span'
p23
S'</span>'
p24
tp25
a(S'<li'
p26
S'</li>'
p27
tp28
a(S'<span'
p29
S'</span>'
p30
tp31
asbag1
(g2
g3
Ntp32
Rp33
(dp34
g7
Vhttp://www.foxnews.com/science/2014/09/21/new-york-climate-march-attracts-over-310000-people/
p35
sg9
(lp36
(S'<footer'
p37
S'</footer>'
p38
tp39
a(S'<nav'
p40
S'</nav>'
p41
tp42
a(S'<header'
p43
S'</header>'
p44
tp45
a(S'<a'
p46
S'</a>'
p47
tp48
a(S'<span'
p49
S'</span>'
p50
tp51
a(S'<div id="user-options"'
p52
S'</span'
p53
tp54
a(S'<div id="subscribe'
p55
S'</div>'
p56
tp57
a(S'<div class="subscribe'
p58
S'</div>'
p59
tp60
a(S'<p class="advert-txt">'
p61
S'</p>'
p62
tp63
asbag1
(g2
g3
Ntp64
Rp65
(dp66
g7
Vhttp://www.usatoday.com/story/news/nation/2014/09/21/nyc-climate-change-march/16008009/
p67
sg9
(lp68
(S'<footer'
p69
S'</footer>'
p70
tp71
a(S'<nav'
p72
S'</nav>'
p73
tp74
a(S'<header'
p75
S'</header>'
p76
tp77
a(S'<a'
p78
S'</a>'
p79
tp80
a(S'<span'
p81
S'</span>'
p82
tp83
a(S'<li'
p84
S'</li>'
p85
tp86
a(S'<span'
p87
S'</span>'
p88
tp89
a(S'class="share'
p90
S'</'
p91
tp92
a(S'class="util'
p93
S'</'
p94
tp95
asbag1
(g2
g3
Ntp96
Rp97
(dp98
g7
Vhttp://www.npr.org/2014/09/22/350410496/all-eyes-on-obama-world-leaders-at-climate-change-summit
p99
sg9
(lp100
(S'<footer'
p101
S'</footer>'
p102
tp103
a(S'<nav'
p104
S'</nav>'
p105
tp106
a(S'<header'
p107
S'</header>'
p108
tp109
a(S'<a'
p110
S'</a>'
p111
tp112
a(S'<span'
p113
S'</span>'
p114
tp115
a(S'<div id="commentBlock">'
p116
S'</div>'
p117
tp118
a(S'<div class="adwrap">'
p119
S'</div>'
p120
tp121
asbag1
(g2
g3
Ntp122
Rp123
(dp124
g7
Vhttp://www.bostonglobe.com/metro/2014/09/20/massachusetts-students-join-massive-nyc-climate-change-march/nKoH1VcU8J85MUNQlHm3UO/story.html
p125
sg9
(lp126
(S'<footer'
p127
S'</footer>'
p128
tp129
a(S'<nav'
p130
S'</nav>'
p131
tp132
a(S'<header'
p133
S'</header>'
p134
tp135
a(S'<a'
p136
S'</a>'
p137
tp138
a(S'<span'
p139
S'</span>'
p140
tp141
a(S'<li'
p142
S'</li>'
p143
tp144
a(S'<span'
p145
S'</span>'
p146
tp147
a(S'class="bg'
p148
S'</'
p149
tp150
a(S'<button'
p151
S'</button>'
p152
tp153
a(S'<div class="fineprint'
p154
S'</'
p155
tp156
a(S'="email'
p157
S'</'
p158
tp159
a(S'<div class="tease-text">'
p160
S'</div>'
p161
tp162
a(S'<div class="paywall'
p163
S'</div>'
p164
tp165
asbag1
(g2
g3
Ntp166
Rp167
(dp168
g7
Vhttp://www.cnn.com/2014/09/21/us/new-york-climate-change-march/
p169
sg9
(lp170
(S'<footer'
p171
S'</footer>'
p172
tp173
a(S'<nav'
p174
S'</nav>'
p175
tp176
a(S'<header'
p177
S'</header>'
p178
tp179
a(S'<a'
p180
S'</a>'
p181
tp182
a(S'<span'
p183
S'</span>'
p184
tp185
a(S'<div class="cd__description"'
p186
S'</div>'
p187
tp188
a(S'<div class="js-el__gallery'
p189
S'</div>'
p190
tp191
a(S'<div class="el__gallery'
p192
S'</div>'
p193
tp194
asbag1
(g2
g3
Ntp195
Rp196
(dp197
g7
Vhttp://www.bbc.com/news/science-environment-29303056
p198
sg9
(lp199
(S'<footer'
p200
S'</footer>'
p201
tp202
a(S'<nav'
p203
S'</nav>'
p204
tp205
a(S'<header'
p206
S'</header>'
p207
tp208
a(S'<a'
p209
S'</a>'
p210
tp211
a(S'<span'
p212
S'</span>'
p213
tp214
a(S'<meta'
p215
S'/>'
p216
tp217
a(S'<div id="most-popular"'
p218
S'</div>'
p219
tp220
a(S'<li'
p221
S'</li>'
p222
tp223
a(S'<span'
p224
S'</span>'
p225
tp226
a(S'<button'
p227
S'</button>'
p228
tp229
asbag1
(g2
g3
Ntp230
Rp231
(dp232
g7
Vhttp://www.economist.com/news/briefing/21618681-2015-un-climate-agreement-possible-it-will-not-be-bold-shadow-copenhagen
p233
sg9
(lp234
(S'<footer'
p235
S'</footer>'
p236
tp237
a(S'<nav'
p238
S'</nav>'
p239
tp240
a(S'<header'
p241
S'</header>'
p242
tp243
a(S'<a'
p244
S'</a>'
p245
tp246
a(S'<span'
p247
S'</span>'
p248
tp249
a(S'<strong'
p250
S'/strong>'
p251
tp252
a(S'<li'
p253
S'</li>'
p254
tp255
a(S'<div class="title">'
p256
S'</div>'
p257
tp258
a(S'<div class="about">'
p259
S'</div>'
p260
tp261
a(S'<div class="product'
p262
S'</div>'
p263
tp264
asba.